target datalayout = "e-m:e-p270:32:32-p271:32:32-p272:64:64-i64:64-i128:128-f80:128-n8:16:32:64-S128"
target triple = "x86_64-pc-linux-gnu"

%struct.strbuf = type { i64, i64, ptr }
%struct.list_objects_filter_options = type { %struct.strbuf, i32, i8, ptr, i64, i64, i32, i64, i64, ptr }

; Function Attrs: nounwind uwtable
define dso_local void @list_objects_filter_init(ptr noundef %0) #0 {
  %2 = alloca ptr, align 8
  %3 = alloca %struct.list_objects_filter_options, align 8
  store ptr %0, ptr %2, align 8, !tbaa !8
  call void @llvm.lifetime.start.p0(i64 88, ptr %3) #10
  call void @llvm.memcpy.p0.p0.i64(ptr align 8 %3, ptr align 8 @__const.list_objects_filter_init.blank, i64 88, i1 false)
  %4 = load ptr, ptr %2, align 8, !tbaa !8
  call void @llvm.memcpy.p0.p0.i64(ptr align 8 %4, ptr align 8 %3, i64 88, i1 false)
  call void @llvm.lifetime.end.p0(i64 88, ptr %3) #10
  ret void
}

; Function Attrs: nounwind uwtable
define dso_local void @list_objects_filter_release(ptr noundef %0) #0 {
  %2 = alloca ptr, align 8
  %3 = alloca i64, align 8
  %4 = alloca i32, align 4
  store ptr %0, ptr %2, align 8, !tbaa !8
  call void @llvm.lifetime.start.p0(i64 8, ptr %3) #10
  %5 = load ptr, ptr %2, align 8, !tbaa !8
  %6 = icmp ne ptr %5, null
  br i1 %6, label %8, label %7

7:                                                ; preds = %1
  store i32 1, ptr %4, align 4
  br label %34

8:                                                ; preds = %1
  %9 = load ptr, ptr %2, align 8, !tbaa !8
  %10 = getelementptr inbounds nuw %struct.list_objects_filter_options, ptr %9, i32 0, i32 0
  call void @strbuf_release(ptr noundef %10)
  %11 = load ptr, ptr %2, align 8, !tbaa !8
  %12 = getelementptr inbounds nuw %struct.list_objects_filter_options, ptr %11, i32 0, i32 3
  %13 = load ptr, ptr %12, align 8, !tbaa !19
  call void @free(ptr noundef %13) #10
  store i64 0, ptr %3, align 8, !tbaa !28
  br label %14

14:                                               ; preds = %26, %8
  %15 = load i64, ptr %3, align 8, !tbaa !28
  %16 = load ptr, ptr %2, align 8, !tbaa !8
  %17 = getelementptr inbounds nuw %struct.list_objects_filter_options, ptr %16, i32 0, i32 7
  %18 = load i64, ptr %17, align 8, !tbaa !33
  %19 = icmp ult i64 %15, %18
  br i1 %19, label %20, label %29

20:                                               ; preds = %14
  %21 = load ptr, ptr %2, align 8, !tbaa !8
  %22 = getelementptr inbounds nuw %struct.list_objects_filter_options, ptr %21, i32 0, i32 9
  %23 = load ptr, ptr %22, align 8, !tbaa !35
  %24 = load i64, ptr %3, align 8, !tbaa !28
  %25 = getelementptr inbounds nuw %struct.list_objects_filter_options, ptr %23, i64 %24
  call void @list_objects_filter_release(ptr noundef %25)
  br label %26

26:                                               ; preds = %20
  %27 = load i64, ptr %3, align 8, !tbaa !28
  %28 = add i64 %27, 1
  store i64 %28, ptr %3, align 8, !tbaa !28
  br label %14, !llvm.loop !43

29:                                               ; preds = %14
  %30 = load ptr, ptr %2, align 8, !tbaa !8
  %31 = getelementptr inbounds nuw %struct.list_objects_filter_options, ptr %30, i32 0, i32 9
  %32 = load ptr, ptr %31, align 8, !tbaa !35
  call void @free(ptr noundef %32) #10
  %33 = load ptr, ptr %2, align 8, !tbaa !8
  call void @list_objects_filter_init(ptr noundef %33)
  store i32 0, ptr %4, align 4
  br label %34

34:                                               ; preds = %29, %7
  call void @llvm.lifetime.end.p0(i64 8, ptr %3) #10
  %35 = load i32, ptr %4, align 4
  switch i32 %35, label %37 [
    i32 0, label %36
    i32 1, label %36
  ]

36:                                               ; preds = %34, %34
  ret void

37:                                               ; preds = %34
  unreachable
}