; Function Attrs: nounwind uwtable
define dso_local void @list_objects_filter_release(ptr noundef %0) local_unnamed_addr #0 {
  %.not = icmp eq ptr %0, null
  br i1 %.not, label %16, label %2

2:                                                ; preds = %1
  tail call void @strbuf_release(ptr noundef nonnull %0) #16
  %3 = getelementptr inbounds nuw i8, ptr %0, i64 32
  %4 = load ptr, ptr %3, align 8, !tbaa !18
  tail call void @free(ptr noundef %4) #16
  %5 = getelementptr inbounds nuw i8, ptr %0, i64 64
  %6 = load i64, ptr %5, align 8, !tbaa !23
  %.not11 = icmp eq i64 %6, 0
  br i1 %.not11, label %._crit_edge, label %.lr.ph

.lr.ph:                                           ; preds = %2
  %7 = getelementptr inbounds nuw i8, ptr %0, i64 80
  br label %8

8:                                                ; preds = %.lr.ph, %8
  %.010 = phi i64 [ 0, %.lr.ph ], [ %11, %8 ]
  %9 = load ptr, ptr %7, align 8, !tbaa !25
  %10 = getelementptr inbounds nuw %struct.list_objects_filter_options, ptr %9, i64 %.010
  tail call void @list_objects_filter_release(ptr noundef %10)
  %11 = add nuw i64 %.010, 1
  %12 = load i64, ptr %5, align 8, !tbaa !23
  %13 = icmp ult i64 %11, %12
  br i1 %13, label %8, label %._crit_edge, !llvm.loop !41

._crit_edge:                                      ; preds = %8, %2
  %14 = getelementptr inbounds nuw i8, ptr %0, i64 80
  %15 = load ptr, ptr %14, align 8, !tbaa !25
  tail call void @free(ptr noundef %15) #16
  tail call void @llvm.memcpy.p0.p0.i64(ptr noundef nonnull align 8 dereferenceable(88) %0, ptr noundef nonnull align 8 dereferenceable(88) @__const.list_objects_filter_init.blank, i64 88, i1 false)
  br label %16

16:                                               ; preds = %1, %._crit_edge
  ret void
}